; Function Attrs: nounwind uwtable
define dso_local range(i32 -2147483648, 2) i32 @onig_get_callout_data_by_tag_dont_clear_old(ptr noundef %0, ptr noundef readonly captures(none) %1, ptr noundef %2, ptr noundef %3, i32 noundef %4, ptr noundef writeonly captures(address_is_null) %5, ptr noundef writeonly captures(address_is_null) %6) local_unnamed_addr #4 {
  %8 = tail call i32 @onig_get_callout_num_by_tag(ptr noundef %0, ptr noundef %2, ptr noundef %3) #30
  %9 = icmp slt i32 %8, 0
  br i1 %9, label %27, label %10

10:                                               ; preds = %7
  %11 = icmp eq i32 %8, 0
  br i1 %11, label %27, label %12

12:                                               ; preds = %10
  %13 = getelementptr inbounds nuw i8, ptr %1, i64 56
  %14 = load ptr, ptr %13, align 8, !tbaa !41
  %15 = zext nneg i32 %8 to i64
  %16 = getelementptr %struct.CalloutData, ptr %14, i64 %15
  %17 = getelementptr i8, ptr %16, i64 -120
  %18 = sext i32 %4 to i64
  %19 = getelementptr inbounds [5 x %struct.anon], ptr %17, i64 0, i64 %18
  %20 = load i32, ptr %19, align 8, !tbaa !53
  %.not.i = icmp eq ptr %5, null
  br i1 %.not.i, label %22, label %21

21:                                               ; preds = %12
  store i32 %20, ptr %5, align 4, !tbaa !24
  br label %22

22:                                               ; preds = %21, %12
  %.not16.i = icmp eq ptr %6, null
  br i1 %.not16.i, label %onig_get_callout_data_dont_clear_old.exit, label %23

23:                                               ; preds = %22
  %24 = getelementptr inbounds nuw i8, ptr %19, i64 8
  tail call void @llvm.memcpy.p0.p0.i64(ptr noundef nonnull align 8 dereferenceable(16) %6, ptr noundef nonnull align 8 dereferenceable(16) %24, i64 16, i1 false), !tbaa.struct !55
  br label %onig_get_callout_data_dont_clear_old.exit

onig_get_callout_data_dont_clear_old.exit:        ; preds = %22, %23
  %25 = icmp eq i32 %20, 0
  %26 = zext i1 %25 to i32
  br label %27

27:                                               ; preds = %10, %7, %onig_get_callout_data_dont_clear_old.exit
  %.0 = phi i32 [ %26, %onig_get_callout_data_dont_clear_old.exit ], [ %8, %7 ], [ -231, %10 ]
  ret i32 %.0
}